---
triple:          'arm64-apple-darwin'
binary-path:     '/Users/amos/Documents/random_proj/graddesc/src/tests/testing'
relocations:
  - { offset: 0x49, size: 0x8, addend: 0x0, symName: __ZN13matplotlibcpp6detailL9s_backendE, symObjAddr: 0x20DC8, symBinAddr: 0x10000C000, symSize: 0x0 }
  - { offset: 0x338E, size: 0x8, addend: 0x0, symName: __ZNSt3__124__put_character_sequenceB8ne180100IcNS_11char_traitsIcEEEERNS_13basic_ostreamIT_T0_EES7_PKS4_m, symObjAddr: 0x2398, symBinAddr: 0x100005EC0, symSize: 0x1EC }
  - { offset: 0x41FE, size: 0x8, addend: 0x0, symName: __ZNSt3__1lsB8ne180100INS_11char_traitsIcEEEERNS_13basic_ostreamIcT_EES6_PKc, symObjAddr: 0x138, symBinAddr: 0x100003C60, symSize: 0x48 }
  - { offset: 0x4244, size: 0x8, addend: 0x0, symName: __ZNSt3__116__pad_and_outputB8ne180100IcNS_11char_traitsIcEEEENS_19ostreambuf_iteratorIT_T0_EES6_PKS4_S8_S8_RNS_8ios_baseES4_, symObjAddr: 0x25D4, symBinAddr: 0x1000060FC, symSize: 0x240 }
  - { offset: 0x4313, size: 0x8, addend: 0x0, symName: __ZNSt3__112__to_addressB8ne180100IKcEEPT_S3_, symObjAddr: 0x2AD0, symBinAddr: 0x1000065F8, symSize: 0x14 }
  - { offset: 0x437B, size: 0x8, addend: 0x0, symName: __ZNSt3__19use_facetB8ne180100INS_5ctypeIcEEEERKT_RKNS_6localeE, symObjAddr: 0x2D50, symBinAddr: 0x100006878, symSize: 0x2C }
  - { offset: 0x4848, size: 0x8, addend: 0x0, symName: __ZNSt3__118__constexpr_strlenB8ne180100EPKc, symObjAddr: 0x2DE8, symBinAddr: 0x100006910, symSize: 0x24 }
  - { offset: 0x4879, size: 0x8, addend: 0x0, symName: __ZNSt3__16__math4sqrtB8ne180100Ef, symObjAddr: 0x316C, symBinAddr: 0x100006C94, symSize: 0x18 }
  - { offset: 0x48EA, size: 0x8, addend: 0x0, symName: __ZNSt3__14swapB8ne180100ImEENS_9enable_ifIXaasr21is_move_constructibleIT_EE5valuesr18is_move_assignableIS2_EE5valueEvE4typeERS2_S5_, symObjAddr: 0x34C8, symBinAddr: 0x100006FF0, symSize: 0x3C }
  - { offset: 0x493B, size: 0x8, addend: 0x0, symName: __ZNSt3__14swapB8ne180100IPiEENS_9enable_ifIXaasr21is_move_constructibleIT_EE5valuesr18is_move_assignableIS3_EE5valueEvE4typeERS3_S6_, symObjAddr: 0x3504, symBinAddr: 0x10000702C, symSize: 0x3C }
  - { offset: 0x498C, size: 0x8, addend: 0x0, symName: __ZNSt3__14swapB8ne180100IiEENS_9enable_ifIXaasr21is_move_constructibleIT_EE5valuesr18is_move_assignableIS2_EE5valueEvE4typeERS2_S5_, symObjAddr: 0x3738, symBinAddr: 0x100007260, symSize: 0x3C }
  - { offset: 0x5A64, size: 0x8, addend: 0x0, symName: __ZNSt3__112basic_stringIcNS_11char_traitsIcEENS_9allocatorIcEEEC1B8ne180100Ev, symObjAddr: 0x0, symBinAddr: 0x100003B28, symSize: 0x2C }
  - { offset: 0x5A8C, size: 0x8, addend: 0x0, symName: __Z8printMatRN10numMethods6MatrixIiEE, symObjAddr: 0x2C, symBinAddr: 0x100003B54, symSize: 0xDC }
  - { offset: 0x6171, size: 0x8, addend: 0x0, symName: __ZN10numMethodsmlIfEENS_9NumVectorIT_EERKS2_S3_, symObjAddr: 0x13B8, symBinAddr: 0x100004EE0, symSize: 0x3C }
  - { offset: 0x61B5, size: 0x8, addend: 0x0, symName: __ZN10numMethodsmlIiEENS_6MatrixIT_EERKS2_S3_, symObjAddr: 0x1A04, symBinAddr: 0x10000552C, symSize: 0x3C }
  - { offset: 0x64B8, size: 0x8, addend: 0x0, symName: __ZNK10numMethods6MatrixIiE7getRowsEv, symObjAddr: 0x108, symBinAddr: 0x100003C30, symSize: 0x18 }
  - { offset: 0x64DC, size: 0x8, addend: 0x0, symName: __ZNK10numMethods6MatrixIiE7getColsEv, symObjAddr: 0x120, symBinAddr: 0x100003C48, symSize: 0x18 }
  - { offset: 0x6500, size: 0x8, addend: 0x0, symName: __ZNK10numMethods6MatrixIiEixEi, symObjAddr: 0x180, symBinAddr: 0x100003CA8, symSize: 0xA8 }
  - { offset: 0x6533, size: 0x8, addend: 0x0, symName: _main, symObjAddr: 0x228, symBinAddr: 0x100003D50, symSize: 0xE34 }
  - { offset: 0x67D4, size: 0x8, addend: 0x0, symName: __ZN10numMethods9NumVectorIfEC1EjPf, symObjAddr: 0x105C, symBinAddr: 0x100004B84, symSize: 0x3C }
  - { offset: 0x6818, size: 0x8, addend: 0x0, symName: __ZNK10numMethods9NumVectorIfEplERS1_, symObjAddr: 0x1098, symBinAddr: 0x100004BC0, symSize: 0x19C }
  - { offset: 0x6891, size: 0x8, addend: 0x0, symName: __ZNK10numMethods9NumVectorIfE3dotERS1_, symObjAddr: 0x1234, symBinAddr: 0x100004D5C, symSize: 0xF8 }
  - { offset: 0x68ED, size: 0x8, addend: 0x0, symName: __ZNK10numMethods9NumVectorIfE7getNumsEv, symObjAddr: 0x132C, symBinAddr: 0x100004E54, symSize: 0x18 }
  - { offset: 0x6911, size: 0x8, addend: 0x0, symName: __ZN10numMethods9NumVectorIfEpLERKS1_, symObjAddr: 0x1344, symBinAddr: 0x100004E6C, symSize: 0x74 }
  - { offset: 0x6943, size: 0x8, addend: 0x0, symName: __ZN10numMethods9NumVectorIfEaSERKS1_, symObjAddr: 0x13F4, symBinAddr: 0x100004F1C, symSize: 0x78 }
  - { offset: 0x6975, size: 0x8, addend: 0x0, symName: __ZN10numMethods9NumVectorIfED1Ev, symObjAddr: 0x146C, symBinAddr: 0x100004F94, symSize: 0x2C }
  - { offset: 0x699D, size: 0x8, addend: 0x0, symName: __ZN10numMethods9NumVectorIfEixEi, symObjAddr: 0x1498, symBinAddr: 0x100004FC0, symSize: 0xA0 }
  - { offset: 0x69CF, size: 0x8, addend: 0x0, symName: __ZNK10numMethods9NumVectorIfE4normEv, symObjAddr: 0x1538, symBinAddr: 0x100005060, symSize: 0x94 }
  - { offset: 0x6A0F, size: 0x8, addend: 0x0, symName: __ZNK10numMethods9NumVectorIfE9normaliseEv, symObjAddr: 0x15CC, symBinAddr: 0x1000050F4, symSize: 0x208 }
  - { offset: 0x6A96, size: 0x8, addend: 0x0, symName: __ZN10numMethods9NumVectorIfE3eleEi, symObjAddr: 0x17D4, symBinAddr: 0x1000052FC, symSize: 0xA4 }
  - { offset: 0x6AC8, size: 0x8, addend: 0x0, symName: __ZN10numMethods9NumVectorIfEmIERKS1_, symObjAddr: 0x1878, symBinAddr: 0x1000053A0, symSize: 0x74 }
  - { offset: 0x6AFA, size: 0x8, addend: 0x0, symName: __ZN10numMethods6MatrixIiEC1EjjPi, symObjAddr: 0x18EC, symBinAddr: 0x100005414, symSize: 0x44 }
  - { offset: 0x6B4C, size: 0x8, addend: 0x0, symName: __ZNK10numMethods6MatrixIiE10transposedEv, symObjAddr: 0x1930, symBinAddr: 0x100005458, symSize: 0x90 }
  - { offset: 0x6B80, size: 0x8, addend: 0x0, symName: __ZN10numMethods6MatrixIiE9transposeEv, symObjAddr: 0x19C0, symBinAddr: 0x1000054E8, symSize: 0x44 }
  - { offset: 0x6BA4, size: 0x8, addend: 0x0, symName: __ZN10numMethods6MatrixIiEaSERKS1_, symObjAddr: 0x1A40, symBinAddr: 0x100005568, symSize: 0xF8 }
  - { offset: 0x6BD7, size: 0x8, addend: 0x0, symName: __ZN10numMethods6MatrixIiED1Ev, symObjAddr: 0x1B38, symBinAddr: 0x100005660, symSize: 0x2C }
  - { offset: 0x6BFF, size: 0x8, addend: 0x0, symName: __ZN10numMethods6MatrixIiE5cswapEii, symObjAddr: 0x1B64, symBinAddr: 0x10000568C, symSize: 0x1B4 }
  - { offset: 0x6C5E, size: 0x8, addend: 0x0, symName: __ZNK10numMethods6MatrixIiE3colEi, symObjAddr: 0x1D18, symBinAddr: 0x100005840, symSize: 0xA8 }
  - { offset: 0x6C91, size: 0x8, addend: 0x0, symName: __ZNK10numMethods6MatrixIiE3rowEi, symObjAddr: 0x1DC0, symBinAddr: 0x1000058E8, symSize: 0xA8 }
  - { offset: 0x6CC4, size: 0x8, addend: 0x0, symName: __ZNK10numMethods6MatrixIiEmlERS1_, symObjAddr: 0x1E68, symBinAddr: 0x100005990, symSize: 0x338 }
  - { offset: 0x6DA4, size: 0x8, addend: 0x0, symName: __ZN10numMethods6MatrixIiEmLERKS1_, symObjAddr: 0x21A0, symBinAddr: 0x100005CC8, symSize: 0x88 }
  - { offset: 0x6DD7, size: 0x8, addend: 0x0, symName: __ZNSt3__112basic_stringIcNS_11char_traitsIcEENS_9allocatorIcEEEC2B8ne180100Ev, symObjAddr: 0x2228, symBinAddr: 0x100005D50, symSize: 0x48 }
  - { offset: 0x6E09, size: 0x8, addend: 0x0, symName: __ZNSt3__117__compressed_pairINS_12basic_stringIcNS_11char_traitsIcEENS_9allocatorIcEEE5__repES5_EC1B8ne180100INS_16__value_init_tagENS_18__default_init_tagEEEOT_OT0_, symObjAddr: 0x2270, symBinAddr: 0x100005D98, symSize: 0x3C }
  - { offset: 0x6E5F, size: 0x8, addend: 0x0, symName: __ZNKSt3__112basic_stringIcNS_11char_traitsIcEENS_9allocatorIcEEE14__annotate_newB8ne180100Em, symObjAddr: 0x22BC, symBinAddr: 0x100005DE4, symSize: 0x14 }
  - { offset: 0x6E92, size: 0x8, addend: 0x0, symName: __ZNSt3__117__compressed_pairINS_12basic_stringIcNS_11char_traitsIcEENS_9allocatorIcEEE5__repES5_EC2B8ne180100INS_16__value_init_tagENS_18__default_init_tagEEEOT_OT0_, symObjAddr: 0x22D0, symBinAddr: 0x100005DF8, symSize: 0x3C }
  - { offset: 0x6EE8, size: 0x8, addend: 0x0, symName: __ZNSt3__122__compressed_pair_elemINS_12basic_stringIcNS_11char_traitsIcEENS_9allocatorIcEEE5__repELi0ELb0EEC2B8ne180100ENS_16__value_init_tagE, symObjAddr: 0x230C, symBinAddr: 0x100005E34, symSize: 0x20 }
  - { offset: 0x6F1A, size: 0x8, addend: 0x0, symName: __ZNSt3__122__compressed_pair_elemINS_9allocatorIcEELi1ELb1EEC2B8ne180100ENS_18__default_init_tagE, symObjAddr: 0x232C, symBinAddr: 0x100005E54, symSize: 0x2C }
  - { offset: 0x6F4C, size: 0x8, addend: 0x0, symName: __ZNSt3__19allocatorIcEC2B8ne180100Ev, symObjAddr: 0x2358, symBinAddr: 0x100005E80, symSize: 0x2C }
  - { offset: 0x6F74, size: 0x8, addend: 0x0, symName: __ZNSt3__116__non_trivial_ifILb1ENS_9allocatorIcEEEC2B8ne180100Ev, symObjAddr: 0x2384, symBinAddr: 0x100005EAC, symSize: 0x14 }
  - { offset: 0x6F9C, size: 0x8, addend: 0x0, symName: __ZNSt3__111char_traitsIcE6lengthB8ne180100EPKc, symObjAddr: 0x2584, symBinAddr: 0x1000060AC, symSize: 0x34 }
  - { offset: 0x6FDC, size: 0x8, addend: 0x0, symName: __ZNKSt3__113basic_ostreamIcNS_11char_traitsIcEEE6sentrycvbB8ne180100Ev, symObjAddr: 0x25B8, symBinAddr: 0x1000060E0, symSize: 0x1C }
  - { offset: 0x7000, size: 0x8, addend: 0x0, symName: __ZNSt3__119ostreambuf_iteratorIcNS_11char_traitsIcEEEC1B8ne180100ERNS_13basic_ostreamIcS2_EE, symObjAddr: 0x2814, symBinAddr: 0x10000633C, symSize: 0x34 }
  - { offset: 0x7036, size: 0x8, addend: 0x0, symName: __ZNKSt3__18ios_base5flagsB8ne180100Ev, symObjAddr: 0x2848, symBinAddr: 0x100006370, symSize: 0x18 }
  - { offset: 0x705C, size: 0x8, addend: 0x0, symName: __ZNKSt3__19basic_iosIcNS_11char_traitsIcEEE4fillB8ne180100Ev, symObjAddr: 0x2860, symBinAddr: 0x100006388, symSize: 0x64 }
  - { offset: 0x7082, size: 0x8, addend: 0x0, symName: __ZNKSt3__119ostreambuf_iteratorIcNS_11char_traitsIcEEE6failedB8ne180100Ev, symObjAddr: 0x28C4, symBinAddr: 0x1000063EC, symSize: 0x24 }
  - { offset: 0x70A6, size: 0x8, addend: 0x0, symName: __ZNSt3__19basic_iosIcNS_11char_traitsIcEEE8setstateB8ne180100Ej, symObjAddr: 0x28E8, symBinAddr: 0x100006410, symSize: 0x2C }
  - { offset: 0x70D9, size: 0x8, addend: 0x0, symName: __ZNKSt3__18ios_base5widthB8ne180100Ev, symObjAddr: 0x2914, symBinAddr: 0x10000643C, symSize: 0x18 }
  - { offset: 0x70FF, size: 0x8, addend: 0x0, symName: __ZNSt3__115basic_streambufIcNS_11char_traitsIcEEE5sputnB8ne180100EPKcl, symObjAddr: 0x292C, symBinAddr: 0x100006454, symSize: 0x3C }
  - { offset: 0x713F, size: 0x8, addend: 0x0, symName: __ZNSt3__112basic_stringIcNS_11char_traitsIcEENS_9allocatorIcEEEC1B8ne180100Emc, symObjAddr: 0x2968, symBinAddr: 0x100006490, symSize: 0x3C }
  - { offset: 0x7185, size: 0x8, addend: 0x0, symName: __ZNKSt3__112basic_stringIcNS_11char_traitsIcEENS_9allocatorIcEEE4dataB8ne180100Ev, symObjAddr: 0x29A4, symBinAddr: 0x1000064CC, symSize: 0x28 }
  - { offset: 0x71A9, size: 0x8, addend: 0x0, symName: __ZNSt3__18ios_base5widthB8ne180100El, symObjAddr: 0x29CC, symBinAddr: 0x1000064F4, symSize: 0x2C }
  - { offset: 0x71ED, size: 0x8, addend: 0x0, symName: __ZNSt3__112basic_stringIcNS_11char_traitsIcEENS_9allocatorIcEEEC2B8ne180100Emc, symObjAddr: 0x29F8, symBinAddr: 0x100006520, symSize: 0x4C }
  - { offset: 0x7233, size: 0x8, addend: 0x0, symName: __ZNSt3__117__compressed_pairINS_12basic_stringIcNS_11char_traitsIcEENS_9allocatorIcEEE5__repES5_EC1B8ne180100INS_18__default_init_tagESA_EEOT_OT0_, symObjAddr: 0x2A44, symBinAddr: 0x10000656C, symSize: 0x3C }
  - { offset: 0x7289, size: 0x8, addend: 0x0, symName: __ZNSt3__117__compressed_pairINS_12basic_stringIcNS_11char_traitsIcEENS_9allocatorIcEEE5__repES5_EC2B8ne180100INS_18__default_init_tagESA_EEOT_OT0_, symObjAddr: 0x2A80, symBinAddr: 0x1000065A8, symSize: 0x3C }
  - { offset: 0x72DF, size: 0x8, addend: 0x0, symName: __ZNSt3__122__compressed_pair_elemINS_12basic_stringIcNS_11char_traitsIcEENS_9allocatorIcEEE5__repELi0ELb0EEC2B8ne180100ENS_18__default_init_tagE, symObjAddr: 0x2ABC, symBinAddr: 0x1000065E4, symSize: 0x14 }
  - { offset: 0x7311, size: 0x8, addend: 0x0, symName: __ZNKSt3__112basic_stringIcNS_11char_traitsIcEENS_9allocatorIcEEE13__get_pointerB8ne180100Ev, symObjAddr: 0x2AE4, symBinAddr: 0x10000660C, symSize: 0x54 }
  - { offset: 0x7335, size: 0x8, addend: 0x0, symName: __ZNKSt3__112basic_stringIcNS_11char_traitsIcEENS_9allocatorIcEEE9__is_longB8ne180100Ev, symObjAddr: 0x2B38, symBinAddr: 0x100006660, symSize: 0x38 }
  - { offset: 0x7359, size: 0x8, addend: 0x0, symName: __ZNKSt3__112basic_stringIcNS_11char_traitsIcEENS_9allocatorIcEEE18__get_long_pointerB8ne180100Ev, symObjAddr: 0x2B70, symBinAddr: 0x100006698, symSize: 0x28 }
  - { offset: 0x737D, size: 0x8, addend: 0x0, symName: __ZNKSt3__112basic_stringIcNS_11char_traitsIcEENS_9allocatorIcEEE19__get_short_pointerB8ne180100Ev, symObjAddr: 0x2B98, symBinAddr: 0x1000066C0, symSize: 0x28 }
  - { offset: 0x73A1, size: 0x8, addend: 0x0, symName: __ZNKSt3__117__compressed_pairINS_12basic_stringIcNS_11char_traitsIcEENS_9allocatorIcEEE5__repES5_E5firstB8ne180100Ev, symObjAddr: 0x2BC0, symBinAddr: 0x1000066E8, symSize: 0x24 }
  - { offset: 0x73C5, size: 0x8, addend: 0x0, symName: __ZNKSt3__122__compressed_pair_elemINS_12basic_stringIcNS_11char_traitsIcEENS_9allocatorIcEEE5__repELi0ELb0EE5__getB8ne180100Ev, symObjAddr: 0x2BE4, symBinAddr: 0x10000670C, symSize: 0x14 }
  - { offset: 0x73E9, size: 0x8, addend: 0x0, symName: __ZNSt3__114pointer_traitsIPKcE10pointer_toB8ne180100ERS1_, symObjAddr: 0x2BF8, symBinAddr: 0x100006720, symSize: 0x14 }
  - { offset: 0x740B, size: 0x8, addend: 0x0, symName: __ZNSt3__119ostreambuf_iteratorIcNS_11char_traitsIcEEEC2B8ne180100ERNS_13basic_ostreamIcS2_EE, symObjAddr: 0x2C0C, symBinAddr: 0x100006734, symSize: 0x54 }
  - { offset: 0x7441, size: 0x8, addend: 0x0, symName: __ZNKSt3__19basic_iosIcNS_11char_traitsIcEEE5rdbufB8ne180100Ev, symObjAddr: 0x2C60, symBinAddr: 0x100006788, symSize: 0x24 }
  - { offset: 0x7467, size: 0x8, addend: 0x0, symName: __ZNKSt3__18ios_base5rdbufB8ne180100Ev, symObjAddr: 0x2C84, symBinAddr: 0x1000067AC, symSize: 0x18 }
  - { offset: 0x748B, size: 0x8, addend: 0x0, symName: __ZNSt3__111char_traitsIcE11eq_int_typeB8ne180100Eii, symObjAddr: 0x2C9C, symBinAddr: 0x1000067C4, symSize: 0x28 }
  - { offset: 0x74BD, size: 0x8, addend: 0x0, symName: __ZNSt3__111char_traitsIcE3eofB8ne180100Ev, symObjAddr: 0x2CC4, symBinAddr: 0x1000067EC, symSize: 0x8 }
  - { offset: 0x74D0, size: 0x8, addend: 0x0, symName: __ZNKSt3__19basic_iosIcNS_11char_traitsIcEEE5widenB8ne180100Ec, symObjAddr: 0x2CCC, symBinAddr: 0x1000067F4, symSize: 0x84 }
  - { offset: 0x7547, size: 0x8, addend: 0x0, symName: __ZNKSt3__15ctypeIcE5widenB8ne180100Ec, symObjAddr: 0x2D7C, symBinAddr: 0x1000068A4, symSize: 0x38 }
  - { offset: 0x757A, size: 0x8, addend: 0x0, symName: __ZNSt3__18ios_base8setstateB8ne180100Ej, symObjAddr: 0x2DB4, symBinAddr: 0x1000068DC, symSize: 0x34 }
  - { offset: 0x75AF, size: 0x8, addend: 0x0, symName: __ZN10numMethods9NumVectorIfEC2EjPf, symObjAddr: 0x2E0C, symBinAddr: 0x100006934, symSize: 0x64 }
  - { offset: 0x75F3, size: 0x8, addend: 0x0, symName: __ZN10numMethods9NumVectorIfED2Ev, symObjAddr: 0x2E70, symBinAddr: 0x100006998, symSize: 0x14 }
  - { offset: 0x761B, size: 0x8, addend: 0x0, symName: __ZNK10numMethods9NumVectorIfE7getSizeEv, symObjAddr: 0x2E84, symBinAddr: 0x1000069AC, symSize: 0x18 }
  - { offset: 0x763F, size: 0x8, addend: 0x0, symName: __ZNK10numMethods9NumVectorIfEplERKS1_, symObjAddr: 0x2E9C, symBinAddr: 0x1000069C4, symSize: 0x19C }
  - { offset: 0x76B8, size: 0x8, addend: 0x0, symName: __ZNK10numMethods9NumVectorIfEmlERKf, symObjAddr: 0x3038, symBinAddr: 0x100006B60, symSize: 0x134 }
  - { offset: 0x7723, size: 0x8, addend: 0x0, symName: __ZNK10numMethods9NumVectorIfEmiERKS1_, symObjAddr: 0x3184, symBinAddr: 0x100006CAC, symSize: 0xB8 }
  - { offset: 0x7755, size: 0x8, addend: 0x0, symName: __ZN10numMethods6MatrixIiEC2EjjPi, symObjAddr: 0x323C, symBinAddr: 0x100006D64, symSize: 0x170 }
  - { offset: 0x77DF, size: 0x8, addend: 0x0, symName: __ZN10numMethods6MatrixIiED2Ev, symObjAddr: 0x33AC, symBinAddr: 0x100006ED4, symSize: 0x14 }
  - { offset: 0x7807, size: 0x8, addend: 0x0, symName: __ZN10numMethods6MatrixIiEC1EjjPiS2_, symObjAddr: 0x33C0, symBinAddr: 0x100006EE8, symSize: 0x4C }
  - { offset: 0x7867, size: 0x8, addend: 0x0, symName: __ZN10numMethods6MatrixIiEC2EjjPiS2_, symObjAddr: 0x340C, symBinAddr: 0x100006F34, symSize: 0xBC }
  - { offset: 0x78C7, size: 0x8, addend: 0x0, symName: __ZNK10numMethods6MatrixIiEmlERKi, symObjAddr: 0x3540, symBinAddr: 0x100007068, symSize: 0x1D4 }
  - { offset: 0x7936, size: 0x8, addend: 0x0, symName: __ZNK10numMethods6MatrixIiE7getNumsEi, symObjAddr: 0x3714, symBinAddr: 0x10000723C, symSize: 0x24 }
  - { offset: 0x7982, size: 0x8, addend: 0x0, symName: __ZN10numMethods9NumVectorIiEC1EjPi, symObjAddr: 0x3774, symBinAddr: 0x10000729C, symSize: 0x3C }
  - { offset: 0x79C6, size: 0x8, addend: 0x0, symName: __ZNK10numMethods9NumVectorIiE3dotERS1_, symObjAddr: 0x37B0, symBinAddr: 0x1000072D8, symSize: 0xF8 }
  - { offset: 0x7A22, size: 0x8, addend: 0x0, symName: __ZN10numMethods9NumVectorIiED1Ev, symObjAddr: 0x38A8, symBinAddr: 0x1000073D0, symSize: 0x2C }
  - { offset: 0x7A4A, size: 0x8, addend: 0x0, symName: __ZN10numMethods9NumVectorIiEC2EjPi, symObjAddr: 0x38D4, symBinAddr: 0x1000073FC, symSize: 0x64 }
  - { offset: 0x7A8E, size: 0x8, addend: 0x0, symName: __ZNK10numMethods9NumVectorIiE7getSizeEv, symObjAddr: 0x3938, symBinAddr: 0x100007460, symSize: 0x18 }
  - { offset: 0x7AB2, size: 0x8, addend: 0x0, symName: __ZNK10numMethods9NumVectorIiE7getNumsEv, symObjAddr: 0x3950, symBinAddr: 0x100007478, symSize: 0x18 }
  - { offset: 0x7AD6, size: 0x8, addend: 0x0, symName: __ZN10numMethods9NumVectorIiED2Ev, symObjAddr: 0x3968, symBinAddr: 0x100007490, symSize: 0x14 }
  - { offset: 0x7AFE, size: 0x8, addend: 0x0, symName: __ZNK10numMethods6MatrixIiEmlERKS1_, symObjAddr: 0x397C, symBinAddr: 0x1000074A4, symSize: 0x338 }
...
